(lp0
(dp1
Vdomain
p2
V.aliexpress.com
p3
sVname
p4
Vali_apache_id
p5
sVvalue
p6
V72.246.190.208.1542273972118.307463.4
p7
sVexpiry
p8
I3626384461
sVpath
p9
V/
p10
sVhttpOnly
p11
I00
sVsecure
p12
I00
sa(dp13
Vdomain
p14
V.aliexpress.com
p15
sVname
p16
Vacs_usuc_t
p17
sVvalue
p18
Vacs_rt=60ac35d9672446f48f424f6efeaba1e6&x_csrf=oojy85i00uez
p19
sVpath
p20
g10
sVhttpOnly
p21
I00
sVsecure
p22
I00
sa(dp23
Vdomain
p24
V.aliexpress.com
p25
sVname
p26
Vcna
p27
sVvalue
p28
VtCl0FONVLkECASdu2qJw42Um
p29
sVexpiry
p30
I2172993973
sVpath
p31
g10
sVhttpOnly
p32
I00
sVsecure
p33
I00
sa(dp34
Vdomain
p35
V.aliexpress.com
p36
sVname
p37
V_m_h5_tk
p38
sVvalue
p39
V79932b89457073a6b6d16a0db0707db0_1542281893402
p40
sVexpiry
p41
I1542878773
sVpath
p42
g10
sVhttpOnly
p43
I00
sVsecure
p44
I00
sa(dp45
Vdomain
p46
V.aliexpress.com
p47
sVname
p48
V_m_h5_tk_enc
p49
sVvalue
p50
Vfed4a598b36880b77c19783024bfc79e
p51
sVexpiry
p52
I1542878773
sVpath
p53
g10
sVhttpOnly
p54
I00
sVsecure
p55
I00
sa(dp56
Vdomain
p57
V.aliexpress.com
p58
sVname
p59
V_hvn_login
p60
sVvalue
p61
V13
p62
sVpath
p63
g10
sVhttpOnly
p64
I00
sVsecure
p65
I01
sa(dp66
Vdomain
p67
V.aliexpress.com
p68
sVname
p69
Vaep_common_f
p70
sVvalue
p71
VEww7xzLSG6U1aXku9WS2vZS1OmzEdWQjMHxRjsFnJ/HmZdeaIMPtQg==
p72
sVexpiry
p73
I3689757630
sVpath
p74
g10
sVhttpOnly
p75
I01
sVsecure
p76
I00
sa(dp77
Vdomain
p78
V.aliexpress.com
p79
sVname
p80
Vxman_us_t
p81
sVvalue
p82
Vx_lid=jp1284536559wuwt&sign=y&x_user=I9ldN7SBV0FSz81l/2SxMXAE3H8729Q/i3/DoSO2Ick=&ctoken=89kint9gdlds&need_popup=y&l_source=aliexpress
p83
sVpath
p84
g10
sVhttpOnly
p85
I00
sVsecure
p86
I00
sa(dp87
Vdomain
p88
V.aliexpress.com
p89
sVname
p90
Vaep_usuc_t
p91
sVvalue
p92
Vber_l=A3
p93
sVpath
p94
g10
sVhttpOnly
p95
I00
sVsecure
p96
I00
sa(dp97
Vdomain
p98
V.aliexpress.com
p99
sVname
p100
Vxman_f
p101
sVvalue
p102
VN9ZkiqHYE31nW6s6GJGCJg06OLkYkL2WgORDeQoYc+BnE9jJmy8X309GJLkbIbcRK59vj82p6S7PiGRyRQBS4Yns09cqkih8MfskKAiuXNMGd2cJe7wzArj/llxpwc+WNtcIS4xOXoZabaVT9YnfsGfpz2aDqBfVJGgv35MhvHTsFbfBT/0EZnjOCjtzTiuPnEcZB9xcLp+uzJfKiG7t9iZeh96CyX/lkdtUxjMpnitziUNe2gxrKUClKDYpvz6bmqlkMu0b51cOFZlNvRY302Rgv7BlUUPKmTREdBuywamvk7yI3SJC9ETwgdEE9WlfPwUvjlFB2b698eDWgeNGN2ZGRlirRrUYglT/TuAW5+WhikU2pLgTLg7Mn9g4rAvr04faBilSaMhz2FuNFlcuTGniXadKPBfn
p103
sVexpiry
p104
I3689757630
sVpath
p105
g10
sVhttpOnly
p106
I01
sVsecure
p107
I00
sa(dp108
Vdomain
p109
V.aliexpress.com
p110
sVname
p111
Vintl_locale
p112
sVvalue
p113
Ven_US
p114
sVpath
p115
g10
sVhttpOnly
p116
I00
sVsecure
p117
I00
sa(dp118
Vdomain
p119
V.aliexpress.com
p120
sVname
p121
Vxman_us_f
p122
sVvalue
p123
Vzero_order=n&x_locale=en_US&x_l=0&last_popup_time=1542273983961&x_user=JP|LUU|THEANH|ifm|903803506&no_popup_today=n
p124
sVexpiry
p125
I3689757632
sVpath
p126
g10
sVhttpOnly
p127
I00
sVsecure
p128
I00
sa(dp129
Vdomain
p130
V.aliexpress.com
p131
sVname
p132
Vaep_usuc_f
p133
sVvalue
p134
Visfm=y&site=glo_j&c_tp=USD&x_alimid=903803506&isb=y&region=JP&b_locale=en_US
p135
sVexpiry
p136
I3689757632
sVpath
p137
g10
sVhttpOnly
p138
I00
sVsecure
p139
I00
sa(dp140
Vdomain
p141
V.aliexpress.com
p142
sVname
p143
Vintl_common_forever
p144
sVvalue
p145
VIE4zJpDmWI5L45YZgfOott77NJc5Ag3TfOEtBGmYQGnBTUQ/nxAVdw==
p146
sVexpiry
p147
I3689757632
sVpath
p148
g10
sVhttpOnly
p149
I01
sVsecure
p150
I00
sa(dp151
Vdomain
p152
V.aliexpress.com
p153
sVname
p154
Vali_apache_tracktmp
p155
sVvalue
p156
VW_signed=Y
p157
sVpath
p158
g10
sVhttpOnly
p159
I00
sVsecure
p160
I00
sa(dp161
Vdomain
p162
Vwww.aliexpress.com
p163
sVname
p164
VJSESSIONID
p165
sVvalue
p166
V4B32B5930BA03858F9AA158A8CD6D484
p167
sVpath
p168
g10
sVhttpOnly
p169
I01
sVsecure
p170
I00
sa(dp171
Vdomain
p172
V.aliexpress.com
p173
sVname
p174
Visg
p175
sVvalue
p176
VBNfX-dKAQMNO4sRPIoFQzoJNZU0rjGIiMWTYaykE_qYNWPeaMe1OzpD6viFjq4P2
p177
sVexpiry
p178
I1557825985
sVpath
p179
g10
sVhttpOnly
p180
I00
sVsecure
p181
I00
sa(dp182
Vdomain
p183
V.aliexpress.com
p184
sVname
p185
Vali_apache_track
p186
sVvalue
p187
Vmt=1|ms=|mid=jp1284536559wuwt
p188
sVexpiry
p189
I3689757633
sVpath
p190
g10
sVhttpOnly
p191
I00
sVsecure
p192
I00
sa(dp193
Vdomain
p194
V.aliexpress.com
p195
sVname
p196
Vxman_t
p197
sVvalue
p198
VMOQ4nlGs+WCDSPUNtbu0DIabN0b63MuJY9sk2q+o2xzhHAjGYE2sAeSjA17QXBXjYvtE+cvZq8p/nhA6xao/v5xL2pn3O8/WQUT8o/KNmfFWH9FaYXPEHh06DK9GS7KFbXEbL24Dz6WwHfJyiYfzJ/BEtjVloJ1vZG5Cmkj7JV8/TdiUC6ggL0Np4Zo+3xl3P5nYlM51iUfQ48d6p8PhGqAZAShi4IYyqfkTL6I9eZJRDv1JiEPBvJguBnwaybVdJUp7RqQ4pE0mrZGH/M+Sfl8HemA3cUrHqga07cIHvJCaBs1AEV58Z4y0MG9I7jSpvQRJ/XsjZXw51CmNRW94p3Y/HoGqsnNjN+eSMJ9G7FxDvyIwaAG5tKAJ6AmGXrvWgqEElBjt9yDHLHj7VkSGSCMmLSlpgF/xoFkbm+IbCKf0sOJN7ScSpdtRRRITGYOzDJCpEtKGbxWsTmKltv3FjO5a6z4L9qHC50lO+z8AOlQWAvbJA0TuGILTXLMN3OLQvBeiccUT2BzpvGp9jZQZGWc8sbRUAyWZ1JTm2qTq7s2jep46CAav9RX6/GkwpLQoUe3k78TUXsQ0ew8sIUa6gW3U1i1k5ytYDUuP3F1xOjtGCVHo/Z+Rfzge31TQqXSr
p199
sVpath
p200
g10
sVhttpOnly
p201
I01
sVsecure
p202
I00
sa(dp203
Vdomain
p204
V.aliexpress.com
p205
sVname
p206
V_ga
p207
sVvalue
p208
VGA1.2.90449570.1542273987
p209
sVexpiry
p210
I1605345986
sVpath
p211
g10
sVhttpOnly
p212
I00
sVsecure
p213
I00
sa(dp214
Vdomain
p215
V.aliexpress.com
p216
sVname
p217
V_gid
p218
sVvalue
p219
VGA1.2.427417501.1542273987
p220
sVexpiry
p221
I1542360386
sVpath
p222
g10
sVhttpOnly
p223
I00
sVsecure
p224
I00
sa(dp225
Vdomain
p226
V.aliexpress.com
p227
sVname
p228
V_gat
p229
sVvalue
p230
V1
p231
sVexpiry
p232
I1542274046
sVpath
p233
g10
sVhttpOnly
p234
I00
sVsecure
p235
I00
sa(dp236
Vdomain
p237
V.aliexpress.com
p238
sVname
p239
V_fbp
p240
sVvalue
p241
Vfb.1.1542273986742.1941636692
p242
sVexpiry
p243
I1542281763
sVpath
p244
g10
sVhttpOnly
p245
I00
sVsecure
p246
I00
sa.